target datalayout = "e-m:e-p270:32:32-p271:32:32-p272:64:64-i64:64-i128:128-f80:128-n8:16:32:64-S128"
target triple = "x86_64-pc-linux-gnu"

@.str.5 = private unnamed_addr constant [35 x i8] c"%s:%d  expected %lu bytes, got %lu\00", align 1
@.str.6 = private unnamed_addr constant [47 x i8] c"%s:%d expected 0x%02x at offset %lu got 0x%02x\00", align 1

; Function Attrs: nounwind uwtable
define void @assert_data(ptr noundef %0, i64 noundef %1, ptr noundef %2, i64 noundef %3, ptr noundef %4, i32 noundef %5) #0 {
  %7 = alloca ptr, align 8
  %8 = alloca i64, align 8
  %9 = alloca ptr, align 8
  %10 = alloca i64, align 8
  %11 = alloca ptr, align 8
  %12 = alloca i32, align 4
  %13 = alloca i64, align 8
  store ptr %0, ptr %7, align 8, !tbaa !3
  store i64 %1, ptr %8, align 8, !tbaa !12
  store ptr %2, ptr %9, align 8, !tbaa !3
  store i64 %3, ptr %10, align 8, !tbaa !12
  store ptr %4, ptr %11, align 8, !tbaa !3
  store i32 %5, ptr %12, align 4, !tbaa !8
  call void @llvm.lifetime.start.p0(i64 8, ptr %13) #9
  %14 = load i64, ptr %8, align 8, !tbaa !12
  %15 = load i64, ptr %10, align 8, !tbaa !12
  %16 = icmp ne i64 %14, %15
  br i1 %16, label %17, label %22

17:                                               ; preds = %6
  %18 = load ptr, ptr %11, align 8, !tbaa !3
  %19 = load i32, ptr %12, align 4, !tbaa !8
  %20 = load i64, ptr %8, align 8, !tbaa !12
  %21 = load i64, ptr %10, align 8, !tbaa !12
  call void (ptr, ...) @CTEST_ERR(ptr noundef @.str.5, ptr noundef %18, i32 noundef %19, i64 noundef %20, i64 noundef %21)
  br label %22

22:                                               ; preds = %17, %6
  store i64 0, ptr %13, align 8, !tbaa !12
  br label %23

23:                                               ; preds = %54, %22
  %24 = load i64, ptr %13, align 8, !tbaa !12
  %25 = load i64, ptr %8, align 8, !tbaa !12
  %26 = icmp ult i64 %24, %25
  br i1 %26, label %27, label %57

27:                                               ; preds = %23
  %28 = load ptr, ptr %7, align 8, !tbaa !3
  %29 = load i64, ptr %13, align 8, !tbaa !12
  %30 = getelementptr inbounds nuw i8, ptr %28, i64 %29
  %31 = load i8, ptr %30, align 1, !tbaa !14
  %32 = zext i8 %31 to i32
  %33 = load ptr, ptr %9, align 8, !tbaa !3
  %34 = load i64, ptr %13, align 8, !tbaa !12
  %35 = getelementptr inbounds nuw i8, ptr %33, i64 %34
  %36 = load i8, ptr %35, align 1, !tbaa !14
  %37 = zext i8 %36 to i32
  %38 = icmp ne i32 %32, %37
  br i1 %38, label %39, label %53

39:                                               ; preds = %27
  %40 = load ptr, ptr %11, align 8, !tbaa !3
  %41 = load i32, ptr %12, align 4, !tbaa !8
  %42 = load ptr, ptr %7, align 8, !tbaa !3
  %43 = load i64, ptr %13, align 8, !tbaa !12
  %44 = getelementptr inbounds nuw i8, ptr %42, i64 %43
  %45 = load i8, ptr %44, align 1, !tbaa !14
  %46 = zext i8 %45 to i32
  %47 = load i64, ptr %13, align 8, !tbaa !12
  %48 = load ptr, ptr %9, align 8, !tbaa !3
  %49 = load i64, ptr %13, align 8, !tbaa !12
  %50 = getelementptr inbounds nuw i8, ptr %48, i64 %49
  %51 = load i8, ptr %50, align 1, !tbaa !14
  %52 = zext i8 %51 to i32
  call void (ptr, ...) @CTEST_ERR(ptr noundef @.str.6, ptr noundef %40, i32 noundef %41, i32 noundef %46, i64 noundef %47, i32 noundef %52)
  br label %53

53:                                               ; preds = %39, %27
  br label %54

54:                                               ; preds = %53
  %55 = load i64, ptr %13, align 8, !tbaa !12
  %56 = add i64 %55, 1
  store i64 %56, ptr %13, align 8, !tbaa !12
  br label %23, !llvm.loop !15

57:                                               ; preds = %23
  call void @llvm.lifetime.end.p0(i64 8, ptr %13) #9
  ret void
}