; Function Attrs: nounwind uwtable
define void @assert_data(ptr noundef readonly captures(none) %0, i64 noundef %1, ptr noundef readonly captures(none) %2, i64 noundef %3, ptr noundef %4, i32 noundef %5) local_unnamed_addr #6 {
  %.not = icmp eq i64 %1, %3
  br i1 %.not, label %.preheader, label %7

.preheader:                                       ; preds = %6
  %.not27 = icmp eq i64 %1, 0
  br i1 %.not27, label %._crit_edge, label %.lr.ph

7:                                                ; preds = %6
  tail call void (ptr, ...) @CTEST_ERR(ptr noundef nonnull @.str.5, ptr noundef %4, i32 noundef %5, i64 noundef %1, i64 noundef %3)
  unreachable

.lr.ph:                                           ; preds = %.preheader, %15
  %.026 = phi i64 [ %16, %15 ], [ 0, %.preheader ]
  %8 = getelementptr inbounds nuw i8, ptr %0, i64 %.026
  %9 = load i8, ptr %8, align 1, !tbaa !12
  %10 = getelementptr inbounds nuw i8, ptr %2, i64 %.026
  %11 = load i8, ptr %10, align 1, !tbaa !12
  %.not23 = icmp eq i8 %9, %11
  br i1 %.not23, label %15, label %12

12:                                               ; preds = %.lr.ph
  %13 = zext i8 %11 to i32
  %14 = zext i8 %9 to i32
  tail call void (ptr, ...) @CTEST_ERR(ptr noundef nonnull @.str.6, ptr noundef %4, i32 noundef %5, i32 noundef %14, i64 noundef %.026, i32 noundef %13)
  unreachable

15:                                               ; preds = %.lr.ph
  %16 = add nuw i64 %.026, 1
  %exitcond.not = icmp eq i64 %16, %1
  br i1 %exitcond.not, label %._crit_edge, label %.lr.ph, !llvm.loop !13

._crit_edge:                                      ; preds = %15, %.preheader
  ret void
}